; Function Attrs: mustprogress uwtable
define dso_local void @_ZN5draco10ObjDecoder16DecodeFromBufferEPNS_13DecoderBufferEPNS_10PointCloudE(ptr dead_on_unwind noalias writable sret(%"class.draco::Status") align 8 %0, ptr noundef nonnull align 8 dereferenceable(328) initializes((320, 328)) %1, ptr noundef readonly captures(none) %2, ptr noundef %3) local_unnamed_addr #3 align 2 {
  %5 = getelementptr inbounds nuw i8, ptr %1, i64 320
  store ptr %3, ptr %5, align 8, !tbaa !53
  %6 = getelementptr inbounds nuw i8, ptr %1, i64 256
  %7 = load ptr, ptr %2, align 8, !tbaa !148
  %8 = getelementptr inbounds nuw i8, ptr %2, i64 16
  %9 = load i64, ptr %8, align 8, !tbaa !136
  %10 = getelementptr inbounds i8, ptr %7, i64 %9
  %11 = getelementptr inbounds nuw i8, ptr %2, i64 8
  %12 = load i64, ptr %11, align 8, !tbaa !149
  %13 = sub nsw i64 %12, %9
  tail call void @_ZN5draco13DecoderBuffer4InitEPKcm(ptr noundef nonnull align 8 dereferenceable(52) %6, ptr noundef %10, i64 noundef %13)
  tail call void @_ZN5draco10ObjDecoder14DecodeInternalEv(ptr dead_on_unwind writable sret(%"class.draco::Status") align 8 %0, ptr noundef nonnull align 8 dereferenceable(328) %1)
  ret void
}